target datalayout = "e-m:e-p270:32:32-p271:32:32-p272:64:64-i64:64-i128:128-f80:128-n8:16:32:64-S128"
target triple = "x86_64-pc-linux-gnu"

%struct.pm_lex_mode = type { i32, %union.anon, ptr }
%union.anon = type { %struct.anon.3 }
%struct.anon.3 = type { %struct.pm_heredoc_lex_mode_t, ptr, ptr, i8 }
%struct.pm_heredoc_lex_mode_t = type { ptr, i64, i32, i32 }
%struct.pm_parser = type { i32, i32, i32, i32, i32, i32, i32, %struct.anon, ptr, ptr, %struct.pm_token_t, %struct.pm_token_t, ptr, ptr, %struct.pm_list_t, %struct.pm_list_t, %struct.pm_location_t, %struct.pm_list_t, %struct.pm_list_t, ptr, ptr, ptr, ptr, ptr, ptr, ptr, %struct.pm_string_t, %struct.pm_constant_pool_t, %struct.pm_newline_list_t, i16, %struct.pm_string_t, i32, ptr, ptr, i32, i8, i8, i8, i8, i8, i8, i8, i8, i8, i8, i8, i8, i8 }
%struct.anon = type { ptr, [4 x %struct.pm_lex_mode], i64 }
%struct.pm_token_t = type { i32, ptr, ptr }
%struct.pm_location_t = type { ptr, ptr }
%struct.pm_list_t = type { i64, ptr, ptr }
%struct.pm_constant_pool_t = type { ptr, ptr, i32, i32 }
%struct.pm_newline_list_t = type { ptr, i64, i64, ptr }
%struct.pm_string_t = type { ptr, i64, i32 }
%struct.pm_node_list = type { i64, i64, ptr }
%struct.pm_node = type { i16, i16, i32, %struct.pm_location_t }
%struct.pm_arguments_node = type { %struct.pm_node, %struct.pm_node_list }
%struct.pm_next_node = type { %struct.pm_node, ptr, %struct.pm_location_t }

@stderr = external global ptr, align 8
@.str.94 = private unnamed_addr constant [29 x i8] c"Failed to allocate %d bytes\0A\00", align 1

; Function Attrs: inlinehint nounwind sspstrong uwtable
define internal ptr @pm_node_alloc(ptr noundef %0, i64 noundef %1) #7 {
  %3 = alloca ptr, align 8
  %4 = alloca i64, align 8
  %5 = alloca ptr, align 8
  store ptr %0, ptr %3, align 8, !tbaa !7
  store i64 %1, ptr %4, align 8, !tbaa !14
  call void @llvm.lifetime.start.p0(i64 8, ptr %5) #15
  %6 = load i64, ptr %4, align 8, !tbaa !14
  %7 = call noalias ptr @calloc(i64 noundef 1, i64 noundef %6) #18
  store ptr %7, ptr %5, align 8, !tbaa !57
  %8 = load ptr, ptr %5, align 8, !tbaa !57
  %9 = icmp eq ptr %8, null
  br i1 %9, label %10, label %15

10:                                               ; preds = %2
  %11 = load ptr, ptr @stderr, align 8, !tbaa !452
  %12 = load i64, ptr %4, align 8, !tbaa !14
  %13 = trunc i64 %12 to i32
  %14 = call i32 (ptr, i32, ptr, ...) @__fprintf_chk(ptr noundef %11, i32 noundef 1, ptr noundef @.str.94, i32 noundef %13)
  call void @abort() #19
  unreachable

15:                                               ; preds = %2
  %16 = load ptr, ptr %5, align 8, !tbaa !57
  call void @llvm.lifetime.end.p0(i64 8, ptr %5) #15
  ret ptr %16
}

; Function Attrs: nounwind sspstrong uwtable
define internal ptr @pm_next_node_create(ptr noundef %0, ptr noundef %1, ptr noundef %2) #0 {
  %4 = alloca ptr, align 8
  %5 = alloca ptr, align 8
  %6 = alloca ptr, align 8
  %7 = alloca ptr, align 8
  %8 = alloca %struct.pm_next_node, align 8
  store ptr %0, ptr %4, align 8, !tbaa !7
  store ptr %1, ptr %5, align 8, !tbaa !57
  store ptr %2, ptr %6, align 8, !tbaa !228
  call void @llvm.lifetime.start.p0(i64 8, ptr %7) #15
  %9 = load ptr, ptr %4, align 8, !tbaa !7
  %10 = call ptr @pm_node_alloc(ptr noundef %9, i64 noundef 48)
  store ptr %10, ptr %7, align 8, !tbaa !645
  %11 = load ptr, ptr %7, align 8, !tbaa !645
  %12 = getelementptr inbounds nuw %struct.pm_next_node, ptr %8, i32 0, i32 0
  %13 = getelementptr inbounds nuw %struct.pm_node, ptr %12, i32 0, i32 0
  store i16 107, ptr %13, align 8, !tbaa !206
  %14 = getelementptr inbounds nuw %struct.pm_node, ptr %12, i32 0, i32 1
  store i16 0, ptr %14, align 2, !tbaa !222
  %15 = getelementptr inbounds nuw %struct.pm_node, ptr %12, i32 0, i32 2
  %16 = load ptr, ptr %4, align 8, !tbaa !7
  %17 = getelementptr inbounds nuw %struct.pm_parser, ptr %16, i32 0, i32 0
  %18 = load i32, ptr %17, align 8, !tbaa !238
  %19 = add i32 %18, 1
  store i32 %19, ptr %17, align 8, !tbaa !238
  store i32 %19, ptr %15, align 4, !tbaa !239
  %20 = getelementptr inbounds nuw %struct.pm_node, ptr %12, i32 0, i32 3
  %21 = getelementptr inbounds nuw %struct.pm_location_t, ptr %20, i32 0, i32 0
  %22 = load ptr, ptr %5, align 8, !tbaa !57
  %23 = getelementptr inbounds nuw %struct.pm_token_t, ptr %22, i32 0, i32 1
  %24 = load ptr, ptr %23, align 8, !tbaa !43
  store ptr %24, ptr %21, align 8, !tbaa !152
  %25 = getelementptr inbounds nuw %struct.pm_location_t, ptr %20, i32 0, i32 1
  %26 = load ptr, ptr %6, align 8, !tbaa !228
  %27 = icmp eq ptr %26, null
  br i1 %27, label %28, label %32

28:                                               ; preds = %3
  %29 = load ptr, ptr %5, align 8, !tbaa !57
  %30 = getelementptr inbounds nuw %struct.pm_token_t, ptr %29, i32 0, i32 2
  %31 = load ptr, ptr %30, align 8, !tbaa !44
  br label %38

32:                                               ; preds = %3
  %33 = load ptr, ptr %6, align 8, !tbaa !228
  %34 = getelementptr inbounds nuw %struct.pm_arguments_node, ptr %33, i32 0, i32 0
  %35 = getelementptr inbounds nuw %struct.pm_node, ptr %34, i32 0, i32 3
  %36 = getelementptr inbounds nuw %struct.pm_location_t, ptr %35, i32 0, i32 1
  %37 = load ptr, ptr %36, align 8, !tbaa !360
  br label %38

38:                                               ; preds = %32, %28
  %39 = phi ptr [ %31, %28 ], [ %37, %32 ]
  store ptr %39, ptr %25, align 8, !tbaa !153
  %40 = getelementptr inbounds nuw %struct.pm_next_node, ptr %8, i32 0, i32 1
  %41 = load ptr, ptr %6, align 8, !tbaa !228
  store ptr %41, ptr %40, align 8, !tbaa !647
  %42 = getelementptr inbounds nuw %struct.pm_next_node, ptr %8, i32 0, i32 2
  %43 = getelementptr inbounds nuw %struct.pm_location_t, ptr %42, i32 0, i32 0
  %44 = load ptr, ptr %5, align 8, !tbaa !57
  %45 = getelementptr inbounds nuw %struct.pm_token_t, ptr %44, i32 0, i32 1
  %46 = load ptr, ptr %45, align 8, !tbaa !43
  store ptr %46, ptr %43, align 8, !tbaa !152
  %47 = getelementptr inbounds nuw %struct.pm_location_t, ptr %42, i32 0, i32 1
  %48 = load ptr, ptr %5, align 8, !tbaa !57
  %49 = getelementptr inbounds nuw %struct.pm_token_t, ptr %48, i32 0, i32 2
  %50 = load ptr, ptr %49, align 8, !tbaa !44
  store ptr %50, ptr %47, align 8, !tbaa !153
  call void @llvm.memcpy.p0.p0.i64(ptr align 8 %11, ptr align 8 %8, i64 48, i1 false), !tbaa.struct !643
  %51 = load ptr, ptr %7, align 8, !tbaa !645
  call void @llvm.lifetime.end.p0(i64 8, ptr %7) #15
  ret ptr %51
}